; ModuleID = '2/833.c'
source_filename = "2/833.c"
target datalayout = "e-m:e-p270:32:32-p271:32:32-p272:64:64-i64:64-f80:128-n8:16:32:64-S128"
target triple = "x86_64-pc-linux-gnu"

@.str = private unnamed_addr constant [3 x i8] c"%d\00", align 1
@.str.1 = private unnamed_addr constant [5 x i8] c"%d%s\00", align 1
@.str.2 = private unnamed_addr constant [4 x i8] c"%c\0A\00", align 1
@.str.3 = private unnamed_addr constant [4 x i8] c"%d\0A\00", align 1

; Function Attrs: noinline nounwind uwtable
define dso_local void @main() #0 {
  %1 = alloca i32, align 4
  %2 = alloca [1000 x i32], align 16
  %3 = alloca i32, align 4
  %4 = alloca i32, align 4
  %5 = alloca i32, align 4
  %6 = alloca [26 x i32], align 16
  %7 = alloca [1000 x [10 x i8]], align 16
  %8 = alloca i8, align 1
  store i32 0, i32* %5, align 4
  %9 = bitcast [26 x i32]* %6 to i8*
  call void @llvm.memset.p0i8.i64(i8* align 16 %9, i8 0, i64 104, i1 false)
  %10 = call i32 (i8*, ...) @__isoc99_scanf(i8* getelementptr inbounds ([3 x i8], [3 x i8]* @.str, i64 0, i64 0), i32* %1)
  store i32 0, i32* %3, align 4
  br label %11

11:                                               ; preds = %24, %0
  %12 = load i32, i32* %3, align 4
  %13 = load i32, i32* %1, align 4
  %14 = icmp slt i32 %12, %13
  br i1 %14, label %15, label %27

15:                                               ; preds = %11
  %16 = load i32, i32* %3, align 4
  %17 = sext i32 %16 to i64
  %18 = getelementptr inbounds [1000 x i32], [1000 x i32]* %2, i64 0, i64 %17
  %19 = load i32, i32* %3, align 4
  %20 = sext i32 %19 to i64
  %21 = getelementptr inbounds [1000 x [10 x i8]], [1000 x [10 x i8]]* %7, i64 0, i64 %20
  %22 = getelementptr inbounds [10 x i8], [10 x i8]* %21, i64 0, i64 0
  %23 = call i32 (i8*, ...) @__isoc99_scanf(i8* getelementptr inbounds ([5 x i8], [5 x i8]* @.str.1, i64 0, i64 0), i32* %18, i8* %22)
  br label %24

24:                                               ; preds = %15
  %25 = load i32, i32* %3, align 4
  %26 = add nsw i32 %25, 1
  store i32 %26, i32* %3, align 4
  br label %11

27:                                               ; preds = %11
  store i8 65, i8* %8, align 1
  br label %28

28:                                               ; preds = %59, %27
  %29 = load i8, i8* %8, align 1
  %30 = sext i8 %29 to i32
  %31 = icmp sle i32 %30, 90
  br i1 %31, label %32, label %62

32:                                               ; preds = %28
  store i32 0, i32* %3, align 4
  br label %33

33:                                               ; preds = %55, %32
  %34 = load i32, i32* %3, align 4
  %35 = load i32, i32* %1, align 4
  %36 = icmp slt i32 %34, %35
  br i1 %36, label %37, label %58

37:                                               ; preds = %33
  %38 = load i32, i32* %3, align 4
  %39 = sext i32 %38 to i64
  %40 = getelementptr inbounds [1000 x [10 x i8]], [1000 x [10 x i8]]* %7, i64 0, i64 %39
  %41 = getelementptr inbounds [10 x i8], [10 x i8]* %40, i64 0, i64 0
  %42 = load i8, i8* %8, align 1
  %43 = sext i8 %42 to i32
  %44 = call i8* @strchr(i8* %41, i32 %43) #4
  %45 = icmp ne i8* %44, null
  br i1 %45, label %46, label %54

46:                                               ; preds = %37
  %47 = load i8, i8* %8, align 1
  %48 = sext i8 %47 to i32
  %49 = sub nsw i32 %48, 65
  %50 = sext i32 %49 to i64
  %51 = getelementptr inbounds [26 x i32], [26 x i32]* %6, i64 0, i64 %50
  %52 = load i32, i32* %51, align 4
  %53 = add nsw i32 %52, 1
  store i32 %53, i32* %51, align 4
  br label %54

54:                                               ; preds = %46, %37
  br label %55

55:                                               ; preds = %54
  %56 = load i32, i32* %3, align 4
  %57 = add nsw i32 %56, 1
  store i32 %57, i32* %3, align 4
  br label %33

58:                                               ; preds = %33
  br label %59

59:                                               ; preds = %58
  %60 = load i8, i8* %8, align 1
  %61 = add i8 %60, 1
  store i8 %61, i8* %8, align 1
  br label %28

62:                                               ; preds = %28
  store i32 0, i32* %3, align 4
  %63 = getelementptr inbounds [26 x i32], [26 x i32]* %6, i64 0, i64 0
  %64 = load i32, i32* %63, align 16
  store i32 %64, i32* %4, align 4
  br label %65

65:                                               ; preds = %82, %62
  %66 = load i32, i32* %3, align 4
  %67 = icmp slt i32 %66, 26
  br i1 %67, label %68, label %85

68:                                               ; preds = %65
  %69 = load i32, i32* %3, align 4
  %70 = sext i32 %69 to i64
  %71 = getelementptr inbounds [26 x i32], [26 x i32]* %6, i64 0, i64 %70
  %72 = load i32, i32* %71, align 4
  %73 = load i32, i32* %4, align 4
  %74 = icmp sgt i32 %72, %73
  br i1 %74, label %75, label %81

75:                                               ; preds = %68
  %76 = load i32, i32* %3, align 4
  %77 = sext i32 %76 to i64
  %78 = getelementptr inbounds [26 x i32], [26 x i32]* %6, i64 0, i64 %77
  %79 = load i32, i32* %78, align 4
  store i32 %79, i32* %4, align 4
  %80 = load i32, i32* %3, align 4
  store i32 %80, i32* %5, align 4
  br label %81

81:                                               ; preds = %75, %68
  br label %82

82:                                               ; preds = %81
  %83 = load i32, i32* %3, align 4
  %84 = add nsw i32 %83, 1
  store i32 %84, i32* %3, align 4
  br label %65

85:                                               ; preds = %65
  %86 = load i32, i32* %5, align 4
  %87 = add nsw i32 %86, 65
  %88 = call i32 (i8*, ...) @printf(i8* getelementptr inbounds ([4 x i8], [4 x i8]* @.str.2, i64 0, i64 0), i32 %87)
  %89 = load i32, i32* %4, align 4
  %90 = call i32 (i8*, ...) @printf(i8* getelementptr inbounds ([4 x i8], [4 x i8]* @.str.3, i64 0, i64 0), i32 %89)
  store i32 0, i32* %3, align 4
  br label %91

91:                                               ; preds = %111, %85
  %92 = load i32, i32* %3, align 4
  %93 = load i32, i32* %1, align 4
  %94 = icmp slt i32 %92, %93
  br i1 %94, label %95, label %114

95:                                               ; preds = %91
  %96 = load i32, i32* %3, align 4
  %97 = sext i32 %96 to i64
  %98 = getelementptr inbounds [1000 x [10 x i8]], [1000 x [10 x i8]]* %7, i64 0, i64 %97
  %99 = getelementptr inbounds [10 x i8], [10 x i8]* %98, i64 0, i64 0
  %100 = load i32, i32* %5, align 4
  %101 = add nsw i32 %100, 65
  %102 = call i8* @strchr(i8* %99, i32 %101) #4
  %103 = icmp ne i8* %102, null
  br i1 %103, label %104, label %110

104:                                              ; preds = %95
  %105 = load i32, i32* %3, align 4
  %106 = sext i32 %105 to i64
  %107 = getelementptr inbounds [1000 x i32], [1000 x i32]* %2, i64 0, i64 %106
  %108 = load i32, i32* %107, align 4
  %109 = call i32 (i8*, ...) @printf(i8* getelementptr inbounds ([4 x i8], [4 x i8]* @.str.3, i64 0, i64 0), i32 %108)
  br label %110

110:                                              ; preds = %104, %95
  br label %111

111:                                              ; preds = %110
  %112 = load i32, i32* %3, align 4
  %113 = add nsw i32 %112, 1
  store i32 %113, i32* %3, align 4
  br label %91

114:                                              ; preds = %91
  ret void
}

; Function Attrs: argmemonly nounwind willreturn
declare void @llvm.memset.p0i8.i64(i8* nocapture writeonly, i8, i64, i1 immarg) #1

declare dso_local i32 @__isoc99_scanf(i8*, ...) #2

; Function Attrs: nounwind readonly
declare dso_local i8* @strchr(i8*, i32) #3

declare dso_local i32 @printf(i8*, ...) #2


!llvm.module.flags = !{!0}
!llvm.ident = !{!1}

!0 = !{i32 1, !"wchar_size", i32 4}
!1 = !{!"clang version 10.0.0-4ubuntu1 "}
