; ModuleID = 'source-C-CXX/1/833.c'
source_filename = "source-C-CXX/1/833.c"
target datalayout = "e-m:e-p270:32:32-p271:32:32-p272:64:64-i64:64-f80:128-n8:16:32:64-S128"
target triple = "x86_64-pc-linux-gnu"

@.str = private unnamed_addr constant [3 x i8] c"%d\00", align 1
@.str.1 = private unnamed_addr constant [5 x i8] c"%d%s\00", align 1
@.str.2 = private unnamed_addr constant [4 x i8] c"%c\0A\00", align 1
@.str.3 = private unnamed_addr constant [4 x i8] c"%d\0A\00", align 1

; Function Attrs: nofree nounwind sspstrong uwtable
define dso_local void @main() local_unnamed_addr #0 {
  %1 = alloca i32, align 4
  %2 = alloca [1000 x i32], align 16
  %3 = alloca [26 x i32], align 16
  %4 = alloca [1000 x [10 x i8]], align 16
  %5 = bitcast i32* %1 to i8*
  call void @llvm.lifetime.start.p0i8(i64 4, i8* nonnull %5) #5
  %6 = bitcast [1000 x i32]* %2 to i8*
  call void @llvm.lifetime.start.p0i8(i64 4000, i8* nonnull %6) #5
  %7 = bitcast [26 x i32]* %3 to i8*
  call void @llvm.lifetime.start.p0i8(i64 104, i8* nonnull %7) #5
  call void @llvm.memset.p0i8.i64(i8* noundef nonnull align 16 dereferenceable(104) %7, i8 0, i64 104, i1 false)
  %8 = getelementptr inbounds [1000 x [10 x i8]], [1000 x [10 x i8]]* %4, i64 0, i64 0, i64 0
  call void @llvm.lifetime.start.p0i8(i64 10000, i8* nonnull %8) #5
  %9 = call i32 (i8*, ...) @__isoc99_scanf(i8* getelementptr inbounds ([3 x i8], [3 x i8]* @.str, i64 0, i64 0), i32* nonnull %1)
  %10 = load i32, i32* %1, align 4, !tbaa !5
  %11 = icmp sgt i32 %10, 0
  br i1 %11, label %35, label %44

12:                                               ; preds = %35
  %13 = icmp sgt i32 %41, 0
  br i1 %13, label %14, label %44

14:                                               ; preds = %12
  %15 = zext i32 %41 to i64
  br label %16

16:                                               ; preds = %14, %32
  %17 = phi i64 [ 65, %14 ], [ %33, %32 ]
  %18 = add nsw i64 %17, -65
  %19 = getelementptr inbounds [26 x i32], [26 x i32]* %3, i64 0, i64 %18
  %20 = trunc i64 %17 to i32
  br label %21

21:                                               ; preds = %16, %29
  %22 = phi i64 [ 0, %16 ], [ %30, %29 ]
  %23 = getelementptr inbounds [1000 x [10 x i8]], [1000 x [10 x i8]]* %4, i64 0, i64 %22, i64 0
  %24 = call i8* @strchr(i8* noundef nonnull %23, i32 %20) #6
  %25 = icmp eq i8* %24, null
  br i1 %25, label %29, label %26

26:                                               ; preds = %21
  %27 = load i32, i32* %19, align 4, !tbaa !5
  %28 = add nsw i32 %27, 1
  store i32 %28, i32* %19, align 4, !tbaa !5
  br label %29

29:                                               ; preds = %26, %21
  %30 = add nuw nsw i64 %22, 1
  %31 = icmp eq i64 %30, %15
  br i1 %31, label %32, label %21, !llvm.loop !9

32:                                               ; preds = %29
  %33 = add nuw nsw i64 %17, 1
  %34 = icmp eq i64 %33, 91
  br i1 %34, label %44, label %16, !llvm.loop !11

35:                                               ; preds = %0, %35
  %36 = phi i64 [ %40, %35 ], [ 0, %0 ]
  %37 = getelementptr inbounds [1000 x i32], [1000 x i32]* %2, i64 0, i64 %36
  %38 = getelementptr inbounds [1000 x [10 x i8]], [1000 x [10 x i8]]* %4, i64 0, i64 %36, i64 0
  %39 = call i32 (i8*, ...) @__isoc99_scanf(i8* getelementptr inbounds ([5 x i8], [5 x i8]* @.str.1, i64 0, i64 0), i32* nonnull %37, i8* nonnull %38)
  %40 = add nuw nsw i64 %36, 1
  %41 = load i32, i32* %1, align 4, !tbaa !5
  %42 = sext i32 %41 to i64
  %43 = icmp slt i64 %40, %42
  br i1 %43, label %35, label %12, !llvm.loop !12

44:                                               ; preds = %32, %0, %12
  %45 = getelementptr inbounds [26 x i32], [26 x i32]* %3, i64 0, i64 0
  %46 = load i32, i32* %45, align 16, !tbaa !5
  %47 = getelementptr inbounds [26 x i32], [26 x i32]* %3, i64 0, i64 1
  %48 = load i32, i32* %47, align 4, !tbaa !5
  %49 = icmp sgt i32 %48, %46
  %50 = select i1 %49, i32 %48, i32 %46
  %51 = getelementptr inbounds [26 x i32], [26 x i32]* %3, i64 0, i64 2
  %52 = load i32, i32* %51, align 8, !tbaa !5
  %53 = icmp sgt i32 %52, %50
  %54 = select i1 %53, i32 %52, i32 %50
  %55 = getelementptr inbounds [26 x i32], [26 x i32]* %3, i64 0, i64 3
  %56 = load i32, i32* %55, align 4, !tbaa !5
  %57 = icmp sgt i32 %56, %54
  %58 = select i1 %57, i32 %56, i32 %54
  %59 = getelementptr inbounds [26 x i32], [26 x i32]* %3, i64 0, i64 4
  %60 = load i32, i32* %59, align 16, !tbaa !5
  %61 = icmp sgt i32 %60, %58
  %62 = select i1 %61, i32 %60, i32 %58
  %63 = getelementptr inbounds [26 x i32], [26 x i32]* %3, i64 0, i64 5
  %64 = load i32, i32* %63, align 4, !tbaa !5
  %65 = icmp sgt i32 %64, %62
  %66 = select i1 %65, i32 %64, i32 %62
  %67 = getelementptr inbounds [26 x i32], [26 x i32]* %3, i64 0, i64 6
  %68 = load i32, i32* %67, align 8, !tbaa !5
  %69 = icmp sgt i32 %68, %66
  %70 = select i1 %69, i32 %68, i32 %66
  %71 = getelementptr inbounds [26 x i32], [26 x i32]* %3, i64 0, i64 7
  %72 = load i32, i32* %71, align 4, !tbaa !5
  %73 = icmp sgt i32 %72, %70
  %74 = select i1 %73, i32 %72, i32 %70
  %75 = getelementptr inbounds [26 x i32], [26 x i32]* %3, i64 0, i64 8
  %76 = load i32, i32* %75, align 16, !tbaa !5
  %77 = icmp sgt i32 %76, %74
  %78 = select i1 %77, i32 %76, i32 %74
  %79 = getelementptr inbounds [26 x i32], [26 x i32]* %3, i64 0, i64 9
  %80 = load i32, i32* %79, align 4, !tbaa !5
  %81 = icmp sgt i32 %80, %78
  %82 = select i1 %81, i32 %80, i32 %78
  %83 = getelementptr inbounds [26 x i32], [26 x i32]* %3, i64 0, i64 10
  %84 = load i32, i32* %83, align 8, !tbaa !5
  %85 = icmp sgt i32 %84, %82
  %86 = select i1 %85, i32 %84, i32 %82
  %87 = getelementptr inbounds [26 x i32], [26 x i32]* %3, i64 0, i64 11
  %88 = load i32, i32* %87, align 4, !tbaa !5
  %89 = icmp sgt i32 %88, %86
  %90 = select i1 %89, i32 %88, i32 %86
  %91 = getelementptr inbounds [26 x i32], [26 x i32]* %3, i64 0, i64 12
  %92 = load i32, i32* %91, align 16, !tbaa !5
  %93 = icmp sgt i32 %92, %90
  %94 = select i1 %93, i32 %92, i32 %90
  %95 = getelementptr inbounds [26 x i32], [26 x i32]* %3, i64 0, i64 13
  %96 = load i32, i32* %95, align 4, !tbaa !5
  %97 = icmp sgt i32 %96, %94
  %98 = select i1 %97, i32 %96, i32 %94
  %99 = getelementptr inbounds [26 x i32], [26 x i32]* %3, i64 0, i64 14
  %100 = load i32, i32* %99, align 8, !tbaa !5
  %101 = icmp sgt i32 %100, %98
  %102 = select i1 %101, i32 %100, i32 %98
  %103 = getelementptr inbounds [26 x i32], [26 x i32]* %3, i64 0, i64 15
  %104 = load i32, i32* %103, align 4, !tbaa !5
  %105 = icmp sgt i32 %104, %102
  %106 = select i1 %105, i32 %104, i32 %102
  %107 = getelementptr inbounds [26 x i32], [26 x i32]* %3, i64 0, i64 16
  %108 = load i32, i32* %107, align 16, !tbaa !5
  %109 = icmp sgt i32 %108, %106
  %110 = select i1 %109, i32 %108, i32 %106
  %111 = getelementptr inbounds [26 x i32], [26 x i32]* %3, i64 0, i64 17
  %112 = load i32, i32* %111, align 4, !tbaa !5
  %113 = icmp sgt i32 %112, %110
  %114 = select i1 %113, i32 %112, i32 %110
  %115 = getelementptr inbounds [26 x i32], [26 x i32]* %3, i64 0, i64 18
  %116 = load i32, i32* %115, align 8, !tbaa !5
  %117 = icmp sgt i32 %116, %114
  %118 = select i1 %117, i32 %116, i32 %114
  %119 = getelementptr inbounds [26 x i32], [26 x i32]* %3, i64 0, i64 19
  %120 = load i32, i32* %119, align 4, !tbaa !5
  %121 = icmp sgt i32 %120, %118
  %122 = select i1 %121, i32 %120, i32 %118
  %123 = getelementptr inbounds [26 x i32], [26 x i32]* %3, i64 0, i64 20
  %124 = load i32, i32* %123, align 16, !tbaa !5
  %125 = icmp sgt i32 %124, %122
  %126 = select i1 %125, i32 %124, i32 %122
  %127 = getelementptr inbounds [26 x i32], [26 x i32]* %3, i64 0, i64 21
  %128 = load i32, i32* %127, align 4, !tbaa !5
  %129 = icmp sgt i32 %128, %126
  %130 = select i1 %129, i32 %128, i32 %126
  %131 = getelementptr inbounds [26 x i32], [26 x i32]* %3, i64 0, i64 22
  %132 = load i32, i32* %131, align 8, !tbaa !5
  %133 = icmp sgt i32 %132, %130
  %134 = select i1 %133, i32 %132, i32 %130
  %135 = getelementptr inbounds [26 x i32], [26 x i32]* %3, i64 0, i64 23
  %136 = load i32, i32* %135, align 4, !tbaa !5
  %137 = icmp sgt i32 %136, %134
  %138 = select i1 %137, i32 %136, i32 %134
  %139 = getelementptr inbounds [26 x i32], [26 x i32]* %3, i64 0, i64 24
  %140 = load i32, i32* %139, align 16, !tbaa !5
  %141 = icmp sgt i32 %140, %138
  %142 = select i1 %141, i32 %140, i32 %138
  %143 = getelementptr inbounds [26 x i32], [26 x i32]* %3, i64 0, i64 25
  %144 = load i32, i32* %143, align 4, !tbaa !5
  %145 = icmp sgt i32 %144, %142
  %146 = select i1 %145, i32 %144, i32 %142
  %147 = select i1 %49, i32 66, i32 65
  %148 = select i1 %53, i32 67, i32 %147
  %149 = select i1 %57, i32 68, i32 %148
  %150 = select i1 %61, i32 69, i32 %149
  %151 = select i1 %65, i32 70, i32 %150
  %152 = select i1 %69, i32 71, i32 %151
  %153 = select i1 %73, i32 72, i32 %152
  %154 = select i1 %77, i32 73, i32 %153
  %155 = select i1 %81, i32 74, i32 %154
  %156 = select i1 %85, i32 75, i32 %155
  %157 = select i1 %89, i32 76, i32 %156
  %158 = select i1 %93, i32 77, i32 %157
  %159 = select i1 %97, i32 78, i32 %158
  %160 = select i1 %101, i32 79, i32 %159
  %161 = select i1 %105, i32 80, i32 %160
  %162 = select i1 %109, i32 81, i32 %161
  %163 = select i1 %113, i32 82, i32 %162
  %164 = select i1 %117, i32 83, i32 %163
  %165 = select i1 %121, i32 84, i32 %164
  %166 = select i1 %125, i32 85, i32 %165
  %167 = select i1 %129, i32 86, i32 %166
  %168 = select i1 %133, i32 87, i32 %167
  %169 = select i1 %137, i32 88, i32 %168
  %170 = select i1 %141, i32 89, i32 %169
  %171 = select i1 %145, i32 90, i32 %170
  %172 = call i32 (i8*, ...) @printf(i8* nonnull dereferenceable(1) getelementptr inbounds ([4 x i8], [4 x i8]* @.str.2, i64 0, i64 0), i32 %171)
  %173 = call i32 (i8*, ...) @printf(i8* nonnull dereferenceable(1) getelementptr inbounds ([4 x i8], [4 x i8]* @.str.3, i64 0, i64 0), i32 %146)
  %174 = load i32, i32* %1, align 4, !tbaa !5
  %175 = icmp sgt i32 %174, 0
  br i1 %175, label %176, label %192

176:                                              ; preds = %44, %187
  %177 = phi i32 [ %188, %187 ], [ %174, %44 ]
  %178 = phi i64 [ %189, %187 ], [ 0, %44 ]
  %179 = getelementptr inbounds [1000 x [10 x i8]], [1000 x [10 x i8]]* %4, i64 0, i64 %178, i64 0
  %180 = call i8* @strchr(i8* noundef nonnull %179, i32 %171) #6
  %181 = icmp eq i8* %180, null
  br i1 %181, label %187, label %182

182:                                              ; preds = %176
  %183 = getelementptr inbounds [1000 x i32], [1000 x i32]* %2, i64 0, i64 %178
  %184 = load i32, i32* %183, align 4, !tbaa !5
  %185 = call i32 (i8*, ...) @printf(i8* nonnull dereferenceable(1) getelementptr inbounds ([4 x i8], [4 x i8]* @.str.3, i64 0, i64 0), i32 %184)
  %186 = load i32, i32* %1, align 4, !tbaa !5
  br label %187

187:                                              ; preds = %176, %182
  %188 = phi i32 [ %177, %176 ], [ %186, %182 ]
  %189 = add nuw nsw i64 %178, 1
  %190 = sext i32 %188 to i64
  %191 = icmp slt i64 %189, %190
  br i1 %191, label %176, label %192, !llvm.loop !13

192:                                              ; preds = %187, %44
  call void @llvm.lifetime.end.p0i8(i64 10000, i8* nonnull %8) #5
  call void @llvm.lifetime.end.p0i8(i64 104, i8* nonnull %7) #5
  call void @llvm.lifetime.end.p0i8(i64 4000, i8* nonnull %6) #5
  call void @llvm.lifetime.end.p0i8(i64 4, i8* nonnull %5) #5
  ret void
}

; Function Attrs: argmemonly mustprogress nofree nosync nounwind willreturn
declare void @llvm.lifetime.start.p0i8(i64 immarg, i8* nocapture) #1

; Function Attrs: argmemonly mustprogress nofree nounwind willreturn writeonly
declare void @llvm.memset.p0i8.i64(i8* nocapture writeonly, i8, i64, i1 immarg) #2

; Function Attrs: nofree nounwind
declare noundef i32 @__isoc99_scanf(i8* nocapture noundef readonly, ...) local_unnamed_addr #3

; Function Attrs: argmemonly mustprogress nofree nounwind readonly willreturn
declare i8* @strchr(i8*, i32) local_unnamed_addr #4

; Function Attrs: nofree nounwind
declare noundef i32 @printf(i8* nocapture noundef readonly, ...) local_unnamed_addr #3

; Function Attrs: argmemonly mustprogress nofree nosync nounwind willreturn
declare void @llvm.lifetime.end.p0i8(i64 immarg, i8* nocapture) #1


!llvm.module.flags = !{!0, !1, !2, !3}
!llvm.ident = !{!4}

!0 = !{i32 1, !"wchar_size", i32 4}
!1 = !{i32 7, !"PIC Level", i32 2}
!2 = !{i32 7, !"PIE Level", i32 2}
!3 = !{i32 7, !"uwtable", i32 1}
!4 = !{!"clang version 13.0.0"}
!5 = !{!6, !6, i64 0}
!6 = !{!"int", !7, i64 0}
!7 = !{!"omnipotent char", !8, i64 0}
!8 = !{!"Simple C/C++ TBAA"}
!9 = distinct !{!9, !10}
!10 = !{!"llvm.loop.mustprogress"}
!11 = distinct !{!11, !10}
!12 = distinct !{!12, !10}
!13 = distinct !{!13, !10}
